target datalayout = "e-m:e-p270:32:32-p271:32:32-p272:64:64-i64:64-i128:128-f80:128-n8:16:32:64-S128"
target triple = "x86_64-pc-linux-gnu"

%struct.lua_Debug = type { i32, ptr, ptr, ptr, ptr, i32, i32, i32, i32, [60 x i8], i32 }

@.str.39 = private unnamed_addr constant [19 x i8] c"level out of range\00", align 1

; Function Attrs: nounwind uwtable
define internal ptr @getthread(ptr noundef %0, ptr noundef %1) #0 {
  %3 = alloca ptr, align 8
  %4 = alloca ptr, align 8
  %5 = alloca ptr, align 8
  store ptr %0, ptr %4, align 8, !tbaa !4
  store ptr %1, ptr %5, align 8, !tbaa !29
  %6 = load ptr, ptr %4, align 8, !tbaa !4
  %7 = call i32 @lua_type(ptr noundef %6, i32 noundef 1)
  %8 = icmp eq i32 %7, 8
  br i1 %8, label %9, label %13

9:                                                ; preds = %2
  %10 = load ptr, ptr %5, align 8, !tbaa !29
  store i32 1, ptr %10, align 4, !tbaa !11
  %11 = load ptr, ptr %4, align 8, !tbaa !4
  %12 = call ptr @lua_tothread(ptr noundef %11, i32 noundef 1)
  store ptr %12, ptr %3, align 8
  br label %16

13:                                               ; preds = %2
  %14 = load ptr, ptr %5, align 8, !tbaa !29
  store i32 0, ptr %14, align 4, !tbaa !11
  %15 = load ptr, ptr %4, align 8, !tbaa !4
  store ptr %15, ptr %3, align 8
  br label %16

16:                                               ; preds = %13, %9
  %17 = load ptr, ptr %3, align 8
  ret ptr %17
}

; Function Attrs: nounwind uwtable
define internal i32 @db_setlocal(ptr noundef %0) #0 {
  %2 = alloca i32, align 4
  %3 = alloca ptr, align 8
  %4 = alloca i32, align 4
  %5 = alloca ptr, align 8
  %6 = alloca %struct.lua_Debug, align 8
  %7 = alloca i32, align 4
  store ptr %0, ptr %3, align 8, !tbaa !4
  call void @llvm.lifetime.start.p0(i64 4, ptr %4) #4
  call void @llvm.lifetime.start.p0(i64 8, ptr %5) #4
  %8 = load ptr, ptr %3, align 8, !tbaa !4
  %9 = call ptr @getthread(ptr noundef %8, ptr noundef %4)
  store ptr %9, ptr %5, align 8, !tbaa !4
  call void @llvm.lifetime.start.p0(i64 120, ptr %6) #4
  %10 = load ptr, ptr %5, align 8, !tbaa !4
  %11 = load ptr, ptr %3, align 8, !tbaa !4
  %12 = load i32, ptr %4, align 4, !tbaa !11
  %13 = add nsw i32 %12, 1
  %14 = call i64 @luaL_checkinteger(ptr noundef %11, i32 noundef %13)
  %15 = trunc i64 %14 to i32
  %16 = call i32 @lua_getstack(ptr noundef %10, i32 noundef %15, ptr noundef %6)
  %17 = icmp ne i32 %16, 0
  br i1 %17, label %23, label %18

18:                                               ; preds = %1
  %19 = load ptr, ptr %3, align 8, !tbaa !4
  %20 = load i32, ptr %4, align 4, !tbaa !11
  %21 = add nsw i32 %20, 1
  %22 = call i32 @luaL_argerror(ptr noundef %19, i32 noundef %21, ptr noundef @.str.39)
  store i32 %22, ptr %2, align 4
  store i32 1, ptr %7, align 4
  br label %40

23:                                               ; preds = %1
  %24 = load ptr, ptr %3, align 8, !tbaa !4
  %25 = load i32, ptr %4, align 4, !tbaa !11
  %26 = add nsw i32 %25, 3
  call void @luaL_checkany(ptr noundef %24, i32 noundef %26)
  %27 = load ptr, ptr %3, align 8, !tbaa !4
  %28 = load i32, ptr %4, align 4, !tbaa !11
  %29 = add nsw i32 %28, 3
  call void @lua_settop(ptr noundef %27, i32 noundef %29)
  %30 = load ptr, ptr %3, align 8, !tbaa !4
  %31 = load ptr, ptr %5, align 8, !tbaa !4
  call void @lua_xmove(ptr noundef %30, ptr noundef %31, i32 noundef 1)
  %32 = load ptr, ptr %3, align 8, !tbaa !4
  %33 = load ptr, ptr %5, align 8, !tbaa !4
  %34 = load ptr, ptr %3, align 8, !tbaa !4
  %35 = load i32, ptr %4, align 4, !tbaa !11
  %36 = add nsw i32 %35, 2
  %37 = call i64 @luaL_checkinteger(ptr noundef %34, i32 noundef %36)
  %38 = trunc i64 %37 to i32
  %39 = call ptr @lua_setlocal(ptr noundef %33, ptr noundef %6, i32 noundef %38)
  call void @lua_pushstring(ptr noundef %32, ptr noundef %39)
  store i32 1, ptr %2, align 4
  store i32 1, ptr %7, align 4
  br label %40

40:                                               ; preds = %23, %18
  call void @llvm.lifetime.end.p0(i64 120, ptr %6) #4
  call void @llvm.lifetime.end.p0(i64 8, ptr %5) #4
  call void @llvm.lifetime.end.p0(i64 4, ptr %4) #4
  %41 = load i32, ptr %2, align 4
  ret i32 %41
}